; Function Attrs: nounwind uwtable
define void @N_VDestroyVectorArray_Serial(ptr noundef captures(none) %0, i32 noundef %1) local_unnamed_addr #9 {
  %3 = icmp sgt i32 %1, 0
  br i1 %3, label %.lr.ph.preheader, label %._crit_edge

.lr.ph.preheader:                                 ; preds = %2
  %wide.trip.count = zext nneg i32 %1 to i64
  br label %.lr.ph

.lr.ph:                                           ; preds = %.lr.ph.preheader, %N_VDestroy_Serial.exit
  %indvars.iv = phi i64 [ 0, %.lr.ph.preheader ], [ %indvars.iv.next, %N_VDestroy_Serial.exit ]
  %4 = getelementptr inbounds nuw ptr, ptr %0, i64 %indvars.iv
  %5 = load ptr, ptr %4, align 8, !tbaa !78
  %6 = load ptr, ptr %5, align 8, !tbaa !39
  %7 = getelementptr inbounds nuw i8, ptr %6, i64 8
  %8 = load i32, ptr %7, align 8, !tbaa !37
  %9 = icmp eq i32 %8, 1
  br i1 %9, label %10, label %N_VDestroy_Serial.exit

10:                                               ; preds = %.lr.ph
  %11 = getelementptr inbounds nuw i8, ptr %6, i64 16
  %12 = load ptr, ptr %11, align 8, !tbaa !38
  tail call void @free(ptr noundef %12) #18
  %13 = load ptr, ptr %5, align 8, !tbaa !39
  %14 = getelementptr inbounds nuw i8, ptr %13, i64 16
  store ptr null, ptr %14, align 8, !tbaa !38
  br label %N_VDestroy_Serial.exit

N_VDestroy_Serial.exit:                           ; preds = %.lr.ph, %10
  %15 = phi ptr [ %13, %10 ], [ %6, %.lr.ph ]
  tail call void @free(ptr noundef nonnull %15) #18
  store ptr null, ptr %5, align 8, !tbaa !39
  %16 = getelementptr inbounds nuw i8, ptr %5, i64 8
  %17 = load ptr, ptr %16, align 8, !tbaa !42
  tail call void @free(ptr noundef %17) #18
  tail call void @free(ptr noundef nonnull %5) #18
  %indvars.iv.next = add nuw nsw i64 %indvars.iv, 1
  %exitcond.not = icmp eq i64 %indvars.iv.next, %wide.trip.count
  br i1 %exitcond.not, label %._crit_edge, label %.lr.ph, !llvm.loop !80

._crit_edge:                                      ; preds = %N_VDestroy_Serial.exit, %2
  tail call void @free(ptr noundef %0) #18
  ret void
}